(lp0
V1479932361904.jpg
p1
aV1479935511684.png
p2
aV1479936042870.jpg
p3
aV1479938270182.jpg
p4
aV1479940718817.gif
p5
aV1479940915893.jpg
p6
aV1479941312167.png
p7
aV1479941659413.jpg
p8
aV1479943519993.jpg
p9
aV1479943758691.jpg
p10
aV1479943951159.jpg
p11
aV1479944076522.png
p12
aV1479944287766.jpg
p13
aV1479945205547.png
p14
aV1479946691105.jpg
p15
aV1479946697908.jpg
p16
aV1479947391187.png
p17
aV1479947675357.jpg
p18
aV1479949191970.jpg
p19
aV1479950528140.jpg
p20
aV1479951062990.png
p21
aV1479934807082.jpg
p22
aV1479934998510.jpg
p23
aV1479935023580.png
p24
aV1479935063392.jpg
p25
aV1479935564977.jpg
p26
aV1479935615372.jpg
p27
aV1479935670634.jpg
p28
aV1479935973629.jpg
p29
aV1479936343659.png
p30
aV1479936491472.png
p31
aV1479936702706.jpg
p32
aV1479937389080.jpg
p33
aV1479937586047.png
p34
aV1479937791098.jpg
p35
aV1479938188682.png
p36
aV1479938369275.jpg
p37
aV1479938439662.png
p38
aV1479938445664.jpg
p39
aV1479939129063.png
p40
aV1479939546102.png
p41
aV1479939607826.jpg
p42
aV1479939985743.jpg
p43
aV1479940574869.jpg
p44
aV1479941263735.jpg
p45
aV1479941311990.jpg
p46
aV1479941538365.png
p47
aV1479941793716.gif
p48
aV1479941801578.jpg
p49
aV1479942625849.jpg
p50
aV1479943542940.jpg
p51
aV1479943733851.jpg
p52
aV1479943762027.jpg
p53
aV1479944015543.png
p54
aV1479944131136.jpg
p55
aV1479944194675.jpg
p56
aV1479944377646.jpg
p57
aV1479946013381.jpg
p58
aV1479946536144.jpg
p59
aV1479946576335.jpg
p60
aV1479946632401.gif
p61
aV1479946913041.gif
p62
aV1479946940774.jpg
p63
aV1479946956005.gif
p64
aV1479946988531.jpg
p65
aV1479947040344.jpg
p66
aV1479947113285.jpg
p67
aV1479947214135.png
p68
aV1479947634124.webm
p69
aV1479947809084.png
p70
aV1479948054993.png
p71
aV1479948950560.jpg
p72
aV1479949617351.jpg
p73
aV1479949742190.jpg
p74
aV1479950327055.jpg
p75
aV1479950526143.jpg
p76
aV1479951050456.jpg
p77
aV1479951175261.jpg
p78
aV1479951259610.jpg
p79
aV1479951357714.jpg
p80
aV1479951463224.jpg
p81
aV1479925622743.jpg
p82
aV1479926518444.jpg
p83
aV1479929541123.jpg
p84
aV1479929696524.jpg
p85
aV1479931432805.jpg
p86
aV1479932394537.jpg
p87
aV1479932756526.jpg
p88
aV1479932943058.jpg
p89
aV1479934280642.jpg
p90
aV1479934728193.jpg
p91
aV1479934813437.jpg
p92
aV1479935259674.jpg
p93
aV1479936613655.jpg
p94
aV1479936706780.jpg
p95
aV1479936775070.jpg
p96
aV1479936956203.gif
p97
aV1479939220114.jpg
p98
aV1479939720560.jpg
p99
aV1479940093249.jpg
p100
aV1479940156072.jpg
p101
aV1479940361550.gif
p102
aV1479940635520.gif
p103
aV1479942712644.png
p104
aV1479942949623.jpg
p105
aV1479943180937.jpg
p106
aV1479943374197.jpg
p107
aV1479947011547.jpg
p108
aV1479949940311.webm
p109
aV1479950031143.jpg
p110
aV1479949847201.jpg
p111
aV1479951519478.png
p112
aV1479950060765.gif
p113
aV1479950809449.png
p114
aV1479944007081.jpg
p115
aV1479944373444.jpg
p116
aV1479944839965.jpg
p117
aV1479947216065.png
p118
aV1479946223246.jpg
p119
aV1479946620587.jpg
p120
aV1479947026419.png
p121
aV1479947937260.jpg
p122
aV1479948155750.jpg
p123
aV1479948530864.jpg
p124
aV1479949147647.jpg
p125
aV1479950565058.png
p126
aV1479948983916.jpg
p127
aV1479944331287.jpg
p128
aV1479947517965.jpg
p129
aV1479947665878.gif
p130
aV1479948077110.png
p131
aV1479948119508.jpg
p132
aV1479948366858.jpg
p133
aV1479948511630.jpg
p134
aV1479949924180.jpg
p135
aV1479950082480.webm
p136
aV1479950322853.jpg
p137
aV1479950411381.jpg
p138
aV1479950763045.jpg
p139
aV1479951410381.jpg
p140
aV1479951502385.png
p141
aV1479949325217.png
p142
aV1479949356535.jpg
p143
aV1479950064431.jpg
p144
aV1479950466594.png
p145
aV1479950540462.jpg
p146
aV1479950818072.png
p147
aV1479951077920.webm
p148
aV1479951501239.webm
p149
aV1479951500636.jpg
p150
aV1479941285740.jpg
p151
aV1479941514291.jpg
p152
aV1479942606325.jpg
p153
aV1479944318251.png
p154
aV1479944461787.jpg
p155
aV1479945579103.jpg
p156
aV1479945950648.jpg
p157
aV1479946181024.jpg
p158
aV1479944522726.jpg
p159
aV1479948412622.jpg
p160
aV1479948722305.jpg
p161
aV1479950875507.jpg
p162
aV1479951161598.png
p163
aV1479951500564.jpg
p164
aV1479885312622.jpg
p165
aV1479885476168.jpg
p166
aV1479885697301.png
p167
aV1479885914214.jpg
p168
aV1479885962214.jpg
p169
aV1479886046258.jpg
p170
aV1479886130079.jpg
p171
aV1479886149318.jpg
p172
aV1479886187943.jpg
p173
aV1479886305731.png
p174
aV1479886352334.jpg
p175
aV1479886420693.jpg
p176
aV1479886496101.jpg
p177
aV1479886547240.jpg
p178
aV1479886704081.jpg
p179
aV1479886713077.jpg
p180
aV1479886784924.png
p181
aV1479886893018.jpg
p182
aV1479887026871.png
p183
aV1479887105010.jpg
p184
aV1479887203607.jpg
p185
aV1479887291509.jpg
p186
aV1479887461388.jpg
p187
aV1479891654377.jpg
p188
aV1479892142896.png
p189
aV1479892382026.jpg
p190
aV1479896001684.png
p191
aV1479897600747.jpg
p192
aV1479898829198.jpg
p193
aV1479899633322.png
p194
aV1479899810798.jpg
p195
aV1479899876783.jpg
p196
aV1479900283216.jpg
p197
aV1479900667678.png
p198
aV1479905721809.png
p199
aV1479911645075.jpg
p200
aV1479912567800.jpg
p201
aV1479913369660.jpg
p202
aV1479916055718.jpg
p203
aV1479918063803.png
p204
aV1479919985675.jpg
p205
aV1479920774080.jpg
p206
aV1479921867665.jpg
p207
aV1479922094735.png
p208
aV1479922669045.png
p209
aV1479923955867.jpg
p210
aV1479924451297.jpg
p211
aV1479926768713.jpg
p212
aV1479927833643.jpg
p213
aV1479928535470.jpg
p214
aV1479928629706.jpg
p215
aV1479928838811.jpg
p216
aV1479928976719.jpg
p217
aV1479929161756.png
p218
aV1479934730394.png
p219
aV1479937239678.jpg
p220
aV1479937279088.webm
p221
aV1479939641066.jpg
p222
aV1479940176631.jpg
p223
aV1479940273411.png
p224
aV1479941324535.jpg
p225
aV1479941715168.png
p226
aV1479941825561.png
p227
aV1479942051060.jpg
p228
aV1479942189208.png
p229
aV1479942606908.webm
p230
aV1479942670519.webm
p231
aV1479942857962.jpg
p232
aV1479942972351.jpg
p233
aV1479943127846.jpg
p234
aV1479943528549.jpg
p235
aV1479943552166.jpg
p236
aV1479943832440.jpg
p237
aV1479943844597.jpg
p238
aV1479943908688.png
p239
aV1479944131165.gif
p240
aV1479944267864.jpg
p241
aV1479944480829.jpg
p242
aV1479944577606.png
p243
aV1479946041156.jpg
p244
aV1479948277872.png
p245
aV1479948293968.gif
p246
aV1479948430295.png
p247
aV1479949193175.jpg
p248
aV1479949578106.png
p249
aV1479950468740.png
p250
aV1479950582836.jpg
p251
aV1479950926802.jpg
p252
aV1479951070536.jpg
p253
aV1479951086419.jpg
p254
aV1479951118295.jpg
p255
aV1479951492746.jpg
p256
aV1479948740880.png
p257
aV1479950868096.png
p258
aV1479950902902.jpg
p259
aV1479951277838.jpg
p260
aV1479949878131.jpg
p261
aV1479950101180.png
p262
aV1479950353655.jpg
p263
aV1479950480752.jpg
p264
aV1479950802640.png
p265
aV1479950897086.gif
p266
aV1479951311436.png
p267
aV1479951367173.jpg
p268
aV1479946374910.jpg
p269
aV1479948361271.jpg
p270
aV1479950118331.jpg
p271
aV1479951230011.jpg
p272
aV1479945124429.jpg
p273
aV1479945584105.jpg
p274
aV1479945746393.jpg
p275
aV1479945877581.jpg
p276
aV1479947620238.jpg
p277
aV1479947915734.jpg
p278
aV1479948183045.jpg
p279
aV1479948343663.jpg
p280
aV1479948596819.jpg
p281
aV1479948641872.jpg
p282
aV1479948762480.jpg
p283
aV1479948874382.jpg
p284
aV1479949100711.jpg
p285
aV1479949356908.jpg
p286
aV1479950017595.jpg
p287
aV1479950357116.jpg
p288
aV1479951228092.jpg
p289
aV1479949665765.webm
p290
aV1479950275803.jpg
p291
aV1479950322698.png
p292
aV1479950439575.jpg
p293
aV1479950526576.jpg
p294
aV1479950599404.jpg
p295
aV1479950668295.jpg
p296
aV1479950680820.jpg
p297
aV1479951096263.webm
p298
aV1479951098172.jpg
p299
aV1479951215602.jpg
p300
aV1479951262445.jpg
p301
aV1479951451296.webm
p302
aV1479928435475.jpg
p303
aV1479929997387.jpg
p304
aV1479931001429.gif
p305
aV1479934133487.jpg
p306
aV1479934147497.jpg
p307
aV1479936130498.gif
p308
aV1479936686111.gif
p309
aV1479943577570.jpg
p310
aV1479943774029.jpg
p311
aV1479943803594.jpg
p312
aV1479946434765.png
p313
aV1479947082943.jpg
p314
aV1479947246285.gif
p315
aV1479948599663.jpg
p316
aV1479949640318.gif
p317
aV1479949887437.gif
p318
aV1479948771583.jpg
p319
aV1479949916322.jpg
p320
aV1479936132062.jpg
p321
aV1479939435701.jpg
p322
aV1479940773406.jpg
p323
aV1479941299831.jpg
p324
aV1479942208670.png
p325
aV1479942865232.webm
p326
aV1479943468156.png
p327
aV1479944236490.jpg
p328
aV1479944414886.jpg
p329
aV1479944460833.webm
p330
aV1479944753251.jpg
p331
aV1479945436312.jpg
p332
aV1479945666541.gif
p333
aV1479945734230.jpg
p334
aV1479945828877.gif
p335
aV1479946254318.jpg
p336
aV1479946621425.jpg
p337
aV1479947247299.png
p338
aV1479951125072.jpg
p339
aV1479950467992.jpg
p340
aV1479950828895.jpg
p341
aV1479950978710.webm
p342
aV1479951455517.jpg
p343
aV1479943361335.jpg
p344
aV1479944613796.jpg
p345
aV1479946551298.jpg
p346
aV1479947828306.jpg
p347
aV1479951226526.jpg
p348
aV1479950170809.jpg
p349
aV1479947403130.jpg
p350
aV1479947738408.png
p351
aV1479880358139.jpg
p352
aV1479880552504.jpg
p353
aV1479880570721.png
p354
aV1479880943926.webm
p355
aV1479882669735.png
p356
aV1479882906216.jpg
p357
aV1479887822874.jpg
p358
aV1479892130130.jpg
p359
aV1479909357593.png
p360
aV1479910858965.jpg
p361
aV1479917052904.jpg
p362
aV1479921000681.webm
p363
aV1479923923947.jpg
p364
aV1479927593487.webm
p365
aV1479931117154.jpg
p366
aV1479935678676.png
p367
aV1479937598222.jpg
p368
aV1479939214024.png
p369
aV1479941034938.jpg
p370
aV1479941050093.png
p371
aV1479941395065.png
p372
aV1479941488419.jpg
p373
aV1479941577724.jpg
p374
aV1479941642035.jpg
p375
aV1479941789802.jpg
p376
aV1479941884994.png
p377
aV1479941965837.png
p378
aV1479942073815.png
p379
aV1479942196769.jpg
p380
aV1479942296689.jpg
p381
aV1479942332663.png
p382
aV1479942425710.jpg
p383
aV1479942865679.jpg
p384
aV1479943390735.jpg
p385
aV1479943898491.jpg
p386
aV1479946092573.jpg
p387
aV1479946380217.jpg
p388
aV1479946454997.jpg
p389
aV1479947037115.jpg
p390
aV1479947203099.jpg
p391
aV1479947782279.png
p392
aV1479948011998.jpg
p393
aV1479948893182.jpg
p394
aV1479949427768.gif
p395
aV1479949961476.gif
p396
aV1479950555407.jpg
p397
aV1479950655203.jpg
p398
aV1479942410493.jpg
p399
aV1479942561656.png
p400
aV1479942580105.jpg
p401
aV1479942980467.png
p402
aV1479943200415.jpg
p403
aV1479943291934.webm
p404
aV1479943419677.jpg
p405
aV1479943524567.webm
p406
aV1479943662050.webm
p407
aV1479943718734.jpg
p408
aV1479943771945.jpg
p409
aV1479943818136.webm
p410
aV1479943896760.webm
p411
aV1479943965402.png
p412
aV1479944099313.webm
p413
aV1479944201584.jpg
p414
aV1479944274015.webm
p415
aV1479944276008.png
p416
aV1479944493809.gif
p417
aV1479945230936.jpg
p418
aV1479945310629.png
p419
aV1479945338960.jpg
p420
aV1479945951738.jpg
p421
aV1479945973511.png
p422
aV1479946105242.png
p423
aV1479946155157.jpg
p424
aV1479946169418.png
p425
aV1479946379993.png
p426
aV1479946401787.png
p427
aV1479946710566.jpg
p428
aV1479946929891.gif
p429
aV1479947001408.jpg
p430
aV1479947050928.jpg
p431
aV1479947150849.jpg
p432
aV1479949914097.png
p433
aV1479951420721.png
p434
aV1479949606304.jpg
p435
aV1479950186098.jpg
p436
aV1479950805922.jpg
p437
aV1479948974643.jpg
p438
aV1479942146061.jpg
p439
aV1479942204386.png
p440
aV1479942332818.jpg
p441
aV1479942544172.jpg
p442
aV1479942827993.png
p443
aV1479942961381.png
p444
aV1479943048344.gif
p445
aV1479943645351.jpg
p446
aV1479943664259.jpg
p447
aV1479943986007.gif
p448
aV1479944240592.png
p449
aV1479944296076.jpg
p450
aV1479944541372.jpg
p451
aV1479944541864.jpg
p452
aV1479944822179.jpg
p453
aV1479948727347.jpg
p454
aV1479950125693.jpg
p455
aV1479950752230.png
p456
aV1479905138906.jpg
p457
aV1479906410546.jpg
p458
aV1479906490743.webm
p459
aV1479906751802.jpg
p460
aV1479913445119.jpg
p461
aV1479913972935.jpg
p462
aV1479914354727.jpg
p463
aV1479914481849.jpg
p464
aV1479914550606.jpg
p465
aV1479915902360.jpg
p466
aV1479921867953.jpg
p467
aV1479921964624.jpg
p468
aV1479922422539.jpg
p469
aV1479923117395.jpg
p470
aV1479923645425.jpg
p471
aV1479925563525.jpg
p472
aV1479926458047.png
p473
aV1479927132075.jpg
p474
aV1479927565241.png
p475
aV1479929413160.png
p476
aV1479929551382.gif
p477
aV1479930000793.jpg
p478
aV1479930781008.png
p479
aV1479930827671.jpg
p480
aV1479934283007.png
p481
aV1479938139716.png
p482
aV1479939688125.png
p483
aV1479939808481.jpg
p484
aV1479942869843.jpg
p485
aV1479944040990.jpg
p486
aV1479945537437.png
p487
aV1479946971110.png
p488
aV1479947234026.gif
p489
aV1479947498356.jpg
p490
aV1479948155002.jpg
p491
aV1479949042851.png
p492
aV1479951262413.jpg
p493
aV1479951359584.jpg
p494
aV1479951105958.jpg
p495
aV1479951209038.jpg
p496
aV1479951357928.jpg
p497
aV1479944407135.jpg
p498
aV1479944880839.jpg
p499
aV1479944963702.webm
p500
aV1479945040406.webm
p501
aV1479945075403.png
p502
aV1479945206856.webm
p503
aV1479945790175.webm
p504
aV1479945908858.jpg
p505
aV1479946249115.webm
p506
aV1479946349144.jpg
p507
aV1479946803474.gif
p508
aV1479946893395.png
p509
aV1479946977104.jpg
p510
aV1479947295348.jpg
p511
aV1479947574847.png
p512
aV1479948281309.jpg
p513
aV1479948423892.jpg
p514
aV1479948485341.jpg
p515
aV1479949303804.jpg
p516
aV1479949364543.jpg
p517
aV1479949427421.jpg
p518
aV1479949958129.webm
p519
aV1479950420818.jpg
p520
aV1479950438452.jpg
p521
aV1479945297183.jpg
p522
aV1479951330362.png
p523
aV1479951166211.jpg
p524
aV1479947069654.jpg
p525
aV1479938756246.jpg
p526
aV1479940827479.jpg
p527
aV1479941402412.jpg
p528
aV1479941443540.jpg
p529
aV1479941667141.jpg
p530
aV1479942352079.jpg
p531
aV1479943030655.jpg
p532
aV1479944595442.jpg
p533
aV1479945022184.png
p534
aV1479949787279.jpg
p535
aV1479949912314.png
p536
aV1479950013381.jpg
p537
aV1479950113421.jpg
p538
aV1479950338563.png
p539
aV1479907300244.jpg
p540
aV1479908095779.gif
p541
aV1479912327273.jpg
p542
aV1479912527977.jpg
p543
aV1479913444052.jpg
p544
aV1479914399183.jpg
p545
aV1479914567452.png
p546
aV1479914622182.jpg
p547
aV1479914626017.jpg
p548
aV1479919688623.gif
p549
aV1479927466544.png
p550
aV1479929342493.png
p551
aV1479938952057.jpg
p552
aV1479946051890.jpg
p553
aV1479950295376.webm
p554
aV1479951265957.png
p555
aV1479948069052.png
p556
aV1479951209453.jpg
p557
aV1479949733259.jpg
p558
aV1479949708752.jpg
p559
aV1479950791664.jpg
p560
aV1479944753465.jpg
p561
aV1479947490740.gif
p562
aV1479950248981.jpg
p563
aV1479950753964.png
p564
aV1479940216126.png
p565
aV1479940481948.gif
p566
aV1479943538769.png
p567
aV1479944253573.jpg
p568
aV1479947979118.jpg
p569
aV1479950016088.jpg
p570
aV1479949504955.jpg
p571
aV1479947455184.jpg
p572
aV1479949382325.jpg
p573
aV1479949473868.jpg
p574
aV1479949689145.jpg
p575
aV1479949750640.jpg
p576
aV1479951141292.webm
p577
aV1479933609424.jpg
p578
aV1479935079383.jpg
p579
aV1479935354315.jpg
p580
aV1479935802269.jpg
p581
aV1479936434175.jpg
p582
aV1479937930901.jpg
p583
aV1479938931718.webm
p584
aV1479939051211.gif
p585
aV1479939319473.jpg
p586
aV1479939566385.jpg
p587
aV1479939705392.jpg
p588
aV1479939879537.jpg
p589
aV1479939984468.jpg
p590
aV1479940160076.jpg
p591
aV1479940225577.jpg
p592
aV1479940296553.jpg
p593
aV1479940370500.jpg
p594
aV1479940480677.jpg
p595
aV1479940956593.jpg
p596
aV1479941128939.png
p597
aV1479941773968.jpg
p598
aV1479944397631.jpg
p599
aV1479946948671.png
p600
aV1479947758712.gif
p601
aV1479950570102.jpg
p602
aV1479951134680.png
p603
aV1479948064376.jpg
p604
aV1479948331030.jpg
p605
aV1479949384109.jpg
p606
aV1479949549497.jpg
p607
aV1479949749759.jpg
p608
aV1479937727271.jpg
p609
aV1479950772992.png
p610
aV1479951025991.jpg
p611
aV1479943098288.jpg
p612
aV1479945119795.jpg
p613
aV1479945439558.jpg
p614
aV1479945624642.jpg
p615
aV1479947083330.png
p616
aV1479949890361.jpg
p617
aV1479951061384.jpg
p618
aV1479947454515.webm
p619
aV1479947694351.jpg
p620
aV1479949066299.jpg
p621
aV1479950454727.jpg
p622
aV1479950618026.jpg
p623
aV1479950820669.png
p624
aV1479951042237.jpg
p625
aV1479947178652.png
p626
aV1479947565626.jpg
p627
aV1479948935397.jpg
p628
aV1479950799823.jpg
p629
aV1479946410280.png
p630
aV1479948515936.webm
p631
aV1479950499529.jpg
p632
aV1479949489925.jpg
p633
aV1479946789888.jpg
p634
aV1479950966872.jpg
p635
aV1479946854397.jpg
p636
aV1479928417078.png
p637
aV1479929606364.jpg
p638
aV1479929687652.webm
p639
aV1479931256311.jpg
p640
aV1479931889899.png
p641
aV1479932160626.jpg
p642
aV1479932252022.png
p643
aV1479932358150.jpg
p644
aV1479932578648.jpg
p645
aV1479932614933.jpg
p646
aV1479933594855.jpg
p647
aV1479933730910.jpg
p648
aV1479933836650.webm
p649
aV1479934184412.png
p650
aV1479935845933.gif
p651
aV1479935960185.jpg
p652
aV1479939576205.png
p653
aV1479939923071.png
p654
aV1479940196343.png
p655
aV1479940447749.jpg
p656
aV1479941014768.jpg
p657
aV1479941316995.png
p658
aV1479941604914.jpg
p659
aV1479941867980.png
p660
aV1479942311685.png
p661
aV1479942626937.png
p662
aV1479943298468.png
p663
aV1479943489420.png
p664
aV1479943756672.png
p665
aV1479943793775.jpg
p666
aV1479944686783.png
p667
aV1479944754490.jpg
p668
aV1479944992819.jpg
p669
aV1479950442289.png
p670
aV1479946919597.jpg
p671
aV1479947318879.png
p672
aV1479948498910.png
p673
aV1479949899078.jpg
p674
aV1479950159386.jpg
p675
aV1479943877260.jpg
p676
aV1479944084046.jpg
p677
aV1479944823655.png
p678
aV1479944896311.jpg
p679
aV1479945514857.jpg
p680
aV1479945582031.jpg
p681
aV1479948016021.webm
p682
aV1479948087585.png
p683
aV1479948507119.gif
p684
aV1479948589875.jpg
p685
aV1479948060359.jpg
p686
aV1479948193773.png
p687
aV1479948206541.png
p688
aV1479948242120.jpg
p689
aV1479948327808.jpg
p690
aV1479945978592.jpg
p691
aV1479946054191.jpg
p692
aV1479947577694.png
p693
aV1479948334969.jpg
p694
aV1479948361783.jpg
p695
aV1479950747706.png
p696
aV1479927574476.png
p697
aV1479928988322.gif
p698
aV1479930949431.gif
p699
aV1479931407172.png
p700
aV1479932147420.png
p701
aV1479932306592.jpg
p702
aV1479932507057.jpg
p703
aV1479934305529.png
p704
aV1479934966467.jpg
p705
aV1479935802462.jpg
p706
aV1479936686363.png
p707
aV1479938697102.jpg
p708
aV1479941135151.jpg
p709
aV1479941424357.jpg
p710
aV1479941809700.jpg
p711
aV1479941973317.jpg
p712
aV1479942151631.jpg
p713
aV1479942350907.jpg
p714
aV1479942528079.jpg
p715
aV1479942563111.jpg
p716
aV1479942747679.jpg
p717
aV1479945306167.gif
p718
aV1479945544673.jpg
p719
aV1479945767619.jpg
p720
aV1479946950291.png
p721
aV1479948704647.jpg
p722
aV1479870323087.jpg
p723
aV1479876724818.jpg
p724
aV1479877141345.jpg
p725
aV1479877736116.jpg
p726
aV1479879160539.png
p727
aV1479879290799.png
p728
aV1479882396470.jpg
p729
aV1479907203767.png
p730
aV1479907452205.gif
p731
aV1479907724782.jpg
p732
aV1479915252280.gif
p733
aV1479915795209.jpg
p734
aV1479931400130.jpg
p735
aV1479934264163.jpg
p736
aV1479935543672.png
p737
aV1479937353884.jpg
p738
aV1479943103029.jpg
p739
aV1479944753833.jpg
p740
aV1479945787134.png
p741
aV1479945855731.png
p742
aV1479945907396.png
p743
aV1479946067944.jpg
p744
aV1479946306066.jpg
p745
aV1479946812515.jpg
p746
aV1479950650375.png
p747
aV1479945826281.png
p748
aV1479946058305.png
p749
aV1479950547711.jpg
p750
aV1479947265765.jpg
p751
aV1479948923752.jpg
p752
aV1479947683665.png
p753
aV1479948025109.jpg
p754
aV1479948108633.png
p755
aV1479948377417.jpg
p756
aV1479948469767.jpg
p757
aV1479949008130.jpg
p758
aV1479950396246.png
p759
aV1479946286997.jpg
p760
aV1479948153635.jpg
p761
aV1479948600696.jpg
p762
aV1479948610580.png
p763
aV1479950531851.png
p764
aV1479926439922.png
p765
aV1479926642073.jpg
p766
aV1479928439380.jpg
p767
aV1479929209269.jpg
p768
aV1479929619653.jpg
p769
aV1479929729943.jpg
p770
aV1479930627943.png
p771
aV1479931174744.png
p772
aV1479931738861.png
p773
aV1479931785846.jpg
p774
aV1479932602209.jpg
p775
aV1479932884408.jpg
p776
aV1479938815688.jpg
p777
aV1479940438521.jpg
p778
aV1479942754437.jpg
p779
aV1479942848432.jpg
p780
aV1479943192285.jpg
p781
aV1479949840630.jpg
p782
aV1479950481527.jpg
p783
aV1479947369389.jpg
p784
aV1479949380168.jpg
p785
aV1479949365721.jpg
p786
aV1479950103540.jpg
p787
aV1479950443606.jpg
p788
aV1479949266720.png
p789
aV1479949927661.jpg
p790
aV1479950264919.jpg
p791
aV1479950434527.jpg
p792
aV1479915984760.jpg
p793
aV1479919630326.jpg
p794
aV1479921153023.gif
p795
aV1479923425180.png
p796
aV1479923452773.jpg
p797
aV1479925117204.jpg
p798
aV1479925859745.png
p799
aV1479926926546.jpg
p800
aV1479927577108.jpg
p801
aV1479928032993.jpg
p802
aV1479930668972.jpg
p803
aV1479932005223.jpg
p804
aV1479932028459.png
p805
aV1479932814970.jpg
p806
aV1479932985896.jpg
p807
aV1479933109872.jpg
p808
aV1479934398546.jpg
p809
aV1479934593821.jpg
p810
aV1479934710058.jpg
p811
aV1479935489484.gif
p812
aV1479936192444.png
p813
aV1479941700983.png
p814
aV1479944060403.jpg
p815
aV1479943443518.png
p816
aV1479943751864.jpg
p817
aV1479943823304.webm
p818
aV1479943950455.jpg
p819
aV1479944161562.png
p820
aV1479944301132.jpg
p821
aV1479944418060.jpg
p822
aV1479944579481.jpg
p823
aV1479944790803.jpg
p824
aV1479944855302.jpg
p825
aV1479945188752.jpg
p826
aV1479945415003.jpg
p827
aV1479945604101.jpg
p828
aV1479945886868.webm
p829
aV1479946136551.png
p830
aV1479946940088.jpg
p831
aV1479947164114.jpg
p832
aV1479947598568.jpg
p833
aV1479947701337.jpg
p834
aV1479948102238.jpg
p835
aV1479949170045.jpg
p836
aV1479949559047.jpg
p837
aV1479950379904.jpg
p838
aV1479951550901.webm
p839
aV1479928766299.jpg
p840
aV1479929369094.jpg
p841
aV1479929534329.jpg
p842
aV1479930248544.jpg
p843
aV1479930855598.jpg
p844
aV1479931572414.jpg
p845
aV1479931949806.jpg
p846
aV1479932233989.png
p847
aV1479932360339.jpg
p848
aV1479938716341.gif
p849
aV1479940431118.jpg
p850
aV1479940757209.webm
p851
aV1479940975110.jpg
p852
aV1479941072635.jpg
p853
aV1479941642956.jpg
p854
aV1479942753664.gif
p855
aV1479945046245.jpg
p856
aV1479945979968.jpg
p857
aV1479946359844.jpg
p858
aV1479946555503.png
p859
aV1479950350540.jpg
p860
aV1479948391301.png
p861
aV1479948970245.png
p862
aV1479949727992.png
p863
aV1479949807796.png
p864
aV1479946980468.jpg
p865
aV1479927801289.jpg
p866
aV1479929757021.gif
p867
aV1479930923731.jpg
p868
aV1479932143029.jpg
p869
aV1479932321243.jpg
p870
aV1479946220995.jpg
p871
aV1479947248786.jpg
p872
aV1479947630964.png
p873
aV1479948793063.png
p874
aV1479949121074.jpg
p875
aV1479949535895.jpg
p876
aV1479943597093.jpg
p877
aV1479943866029.png
p878
aV1479944200761.jpg
p879
aV1479947413075.jpg
p880
aV1479949250553.jpg
p881
aV1479950244340.jpg
p882
aV1479914009536.jpg
p883
aV1479914079319.webm
p884
aV1479914112580.jpg
p885
aV1479916006310.jpg
p886
aV1479916220262.jpg
p887
aV1479919661065.jpg
p888
aV1479919979631.jpg
p889
aV1479921164488.png
p890
aV1479921394263.jpg
p891
aV1479922058298.jpg
p892
aV1479922164510.jpg
p893
aV1479922291731.jpg
p894
aV1479922775087.jpg
p895
aV1479923498400.png
p896
aV1479924826797.jpg
p897
aV1479925900495.gif
p898
aV1479927633113.jpg
p899
aV1479928196342.jpg
p900
aV1479928206699.jpg
p901
aV1479928271545.jpg
p902
aV1479928557633.jpg
p903
aV1479929518204.jpg
p904
aV1479931464397.jpg
p905
aV1479932542184.jpg
p906
aV1479935152898.jpg
p907
aV1479937140476.jpg
p908
aV1479938287402.png
p909
aV1479938376721.png
p910
aV1479939141576.jpg
p911
aV1479939233371.jpg
p912
aV1479942135719.jpg
p913
aV1479944771079.jpg
p914
aV1479945107874.jpg
p915
aV1479950205297.jpg
p916
aV1479950066036.jpg
p917
aV1479949633546.jpg
p918
aV1479949682903.jpg
p919
aV1479925501144.jpg
p920
aV1479927294919.jpg
p921
aV1479927872796.jpg
p922
aV1479932345625.png
p923
aV1479934566928.jpg
p924
aV1479934727269.jpg
p925
aV1479937158602.png
p926
aV1479937375131.jpg
p927
aV1479938341846.jpg
p928
aV1479938492572.gif
p929
aV1479938922625.jpg
p930
aV1479941534644.jpg
p931
aV1479946044123.jpg
p932
aV1479948984153.png
p933
aV1479949151607.jpg
p934
aV1479948225519.jpg
p935
aV1479948375881.jpg
p936
aV1479948759807.jpg
p937
aV1479948873611.jpg
p938
aV1479949032851.jpg
p939
aV1479949233271.png
p940
aV1479949998649.jpg
p941
aV1479949963597.jpg
p942
aV1479944765364.jpg
p943
aV1479949206640.jpg
p944
aV1479949841582.jpg
p945
aV1479949439828.png
p946
aV1479949795635.jpg
p947
aV1479949734610.jpg
p948
aV1479949722995.jpg
p949
aV1479929837147.jpg
p950
aV1479932500971.jpg
p951
aV1479933423333.jpg
p952
aV1479934658175.jpg
p953
aV1479934919352.jpg
p954
aV1479938472028.jpg
p955
aV1479940097734.jpg
p956
aV1479949601151.jpg
p957
aV1479949591002.jpg
p958
aV1479949456436.jpg
p959
aV1479948505765.jpg
p960
aV1479945580747.jpg
p961
aV1479948642709.png
p962
aV1479948971890.jpg
p963
aV1479949380652.png
p964
aV1479947564108.jpg
p965
aV1479947632577.png
p966
aV1479949415512.jpg
p967
aV1479946695994.jpg
p968
aV1479944348939.gif
p969
aV1479944468670.jpg
p970
aV1479945552528.png
p971
aV1479948013797.jpg
p972
aV1479948104304.jpg
p973
aV1479948487939.png
p974
aV1479949396435.jpg
p975
aV1479945248539.jpg
p976
aV1479949347499.png
p977
aV1479949234411.jpg
p978
aV1479949021780.jpg
p979
aV1479933270298.jpg
p980
aV1479933446904.jpg
p981
aV1479933693264.jpg
p982
aV1479934613416.jpg
p983
aV1479935058379.jpg
p984
aV1479936294578.png
p985
aV1479936473358.jpg
p986
aV1479936759510.gif
p987
aV1479936819555.jpg
p988
aV1479937131831.jpg
p989
aV1479937358178.jpg
p990
aV1479937674141.jpg
p991
aV1479937867233.jpg
p992
aV1479939088120.png
p993
aV1479939091074.png
p994
aV1479939365536.jpg
p995
aV1479941306962.jpg
p996
aV1479941597963.gif
p997
aV1479942223662.jpg
p998
aV1479942418817.png
p999
aV1479943034852.jpg
p1000
aV1479943537138.jpg
p1001
aV1479943812012.png
p1002
aV1479945073862.jpg
p1003
aV1479945605570.png
p1004
aV1479947339484.jpg
p1005
aV1479947578509.jpg
p1006
aV1479946375703.jpg
p1007
aV1479946806559.png
p1008
aV1479946972001.jpg
p1009
aV1479947009722.jpg
p1010
aV1479948735629.jpg
p1011
aV1479949252738.jpg
p1012
aV1479948954132.jpg
p1013
aV1479947467106.jpg
p1014
aV1479948989066.png
p1015
aV1479949132425.jpg
p1016
aV1479948862921.jpg
p1017
aV1479946502042.jpg
p1018
aV1479946693449.jpg
p1019
aV1479946847388.jpg
p1020
aV1479946849702.png
p1021
aV1479946905805.jpg
p1022
aV1479947091848.jpg
p1023
aV1479947414292.jpg
p1024
aV1479947786446.jpg
p1025
aV1479948876782.jpg
p1026
aV1479949013595.jpg
p1027
aV1479949065108.jpg
p1028
aV1479949087952.jpg
p1029
aV1479949152504.jpg
p1030
aV1479939334852.jpg
p1031
aV1479939532908.jpg
p1032
aV1479939910691.png
p1033
aV1479942574673.jpg
p1034
aV1479942828397.jpg
p1035
aV1479942994884.png
p1036
aV1479943001297.jpg
p1037
aV1479943002148.jpg
p1038
aV1479943078471.jpg
p1039
aV1479943178129.png
p1040
aV1479944224817.png
p1041
aV1479947772826.jpg
p1042
aV1479944008341.jpg
p1043
aV1479944595398.jpg
p1044
aV1479944917316.jpg
p1045
aV1479944087225.jpg
p1046
aV1479944983599.jpg
p1047
aV1479948381699.jpg
p1048
aV1479948632935.jpg
p1049
aV1479948847217.jpg
p1050
aV1479946871466.jpg
p1051
aV1479948350361.jpg
p1052
aV1479943227151.jpg
p1053
aV1479943390657.jpg
p1054
aV1479944701929.jpg
p1055
aV1479945506232.jpg
p1056
aV1479948776667.jpg
p1057
aV1479921752428.jpg
p1058
aV1479921793059.jpg
p1059
aV1479922658687.jpg
p1060
aV1479926352113.jpg
p1061
aV1479926685234.png
p1062
aV1479926774573.jpg
p1063
aV1479926839592.jpg
p1064
aV1479926906891.jpg
p1065
aV1479926922344.jpg
p1066
aV1479926929594.png
p1067
aV1479926971053.jpg
p1068
aV1479927012252.jpg
p1069
aV1479927038371.jpg
p1070
aV1479927054090.jpg
p1071
aV1479927097257.png
p1072
aV1479927148905.jpg
p1073
aV1479927175426.jpg
p1074
aV1479927405721.jpg
p1075
aV1479927469299.png
p1076
aV1479927478414.png
p1077
aV1479927478968.jpg
p1078
aV1479927586752.jpg
p1079
aV1479927724338.jpg
p1080
aV1479927963497.jpg
p1081
aV1479928014303.jpg
p1082
aV1479928051144.jpg
p1083
aV1479928239207.png
p1084
aV1479928400104.jpg
p1085
aV1479929059584.jpg
p1086
aV1479929164897.jpg
p1087
aV1479933005302.jpg
p1088
aV1479933257142.jpg
p1089
aV1479933659530.jpg
p1090
aV1479933744030.jpg
p1091
aV1479934196526.jpg
p1092
aV1479934917287.jpg
p1093
aV1479935048165.jpg
p1094
aV1479935673988.jpg
p1095
aV1479938121267.jpg
p1096
aV1479938940279.jpg
p1097
aV1479939152277.png
p1098
aV1479939190254.jpg
p1099
aV1479939219352.jpg
p1100
aV1479939494880.png
p1101
aV1479940083005.png
p1102
aV1479942155409.png
p1103
aV1479942895147.jpg
p1104
aV1479943144908.png
p1105
aV1479943246202.jpg
p1106
aV1479943327316.jpg
p1107
aV1479943978037.jpg
p1108
aV1479944264793.png
p1109
aV1479944365470.jpg
p1110
aV1479944615252.jpg
p1111
aV1479944858992.gif
p1112
aV1479945080637.jpg
p1113
aV1479946027666.jpg
p1114
aV1479946067587.png
p1115
aV1479948759761.png
p1116
aV1479948523770.jpg
p1117
aV1479948644902.jpg
p1118
aV1479947345118.jpg
p1119
aV1479947772626.jpg
p1120
aV1479947874705.jpg
p1121
aV1479948230689.jpg
p1122
aV1479948295348.jpg
p1123
aV1479948367631.jpg
p1124
aV1479948504185.jpg
p1125
aV1479948566777.png
p1126
aV1479948720578.jpg
p1127
aV1479947097247.jpg
p1128
aV1479947630143.png
p1129
aV1479948003250.jpg
p1130
aV1479948596590.jpg
p1131
aV1479944488199.jpg
p1132
aV1479948508206.jpg
p1133
aV1479948221310.jpg
p1134
aV1479948381523.png
p1135
aV1479868805894.png
p1136
aV1479870351429.jpg
p1137
aV1479870458110.png
p1138
aV1479870520231.jpg
p1139
aV1479870593210.jpg
p1140
aV1479871510627.jpg
p1141
aV1479872049890.jpg
p1142
aV1479872468840.jpg
p1143
aV1479875528151.jpg
p1144
aV1479884741583.jpg
p1145
aV1479897069102.jpg
p1146
aV1479897162670.jpg
p1147
aV1479902634165.jpg
p1148
aV1479902722968.jpg
p1149
aV1479914154859.jpg
p1150
aV1479915909408.jpg
p1151
aV1479918469720.jpg
p1152
aV1479919687409.jpg
p1153
aV1479919815905.jpg
p1154
aV1479920116858.jpg
p1155
aV1479924019042.jpg
p1156
aV1479929403904.jpg
p1157
aV1479929421099.jpg
p1158
aV1479929817042.jpg
p1159
aV1479937189540.jpg
p1160
aV1479939573116.jpg
p1161
aV1479939994058.jpg
p1162
aV1479940446811.jpg
p1163
aV1479937574304.jpg
p1164
aV1479937720195.jpg
p1165
aV1479939289988.jpg
p1166
aV1479940651628.png
p1167
aV1479940781303.png
p1168
aV1479941017283.jpg
p1169
aV1479943807254.jpg
p1170
aV1479943878589.webm
p1171
aV1479944162016.jpg
p1172
aV1479944653664.gif
p1173
aV1479945008853.png
p1174
aV1479945279877.jpg
p1175
aV1479945450507.jpg
p1176
aV1479945457385.png
p1177
aV1479947037175.jpg
p1178
aV1479947203378.jpg
p1179
aV1479947556428.png
p1180
aV1479948123647.jpg
p1181
aV1479910910710.jpg
p1182
aV1479912312368.jpg
p1183
aV1479913059289.jpg
p1184
aV1479913150863.webm
p1185
aV1479913339751.jpg
p1186
aV1479913831958.jpg
p1187
aV1479914312099.jpg
p1188
aV1479914416390.jpg
p1189
aV1479914969964.jpg
p1190
aV1479915161349.jpg
p1191
aV1479915666332.jpg
p1192
aV1479915936926.jpg
p1193
aV1479915999913.jpg
p1194
aV1479916110193.png
p1195
aV1479916177534.jpg
p1196
aV1479916335580.jpg
p1197
aV1479916408467.gif
p1198
aV1479916517105.jpg
p1199
aV1479916630998.png
p1200
aV1479916942830.png
p1201
aV1479916944019.jpg
p1202
aV1479916968397.jpg
p1203
aV1479917304598.jpg
p1204
aV1479917588833.jpg
p1205
aV1479917904650.jpg
p1206
aV1479918012736.jpg
p1207
aV1479918177369.png
p1208
aV1479918250312.jpg
p1209
aV1479918432614.jpg
p1210
aV1479918469158.webm
p1211
aV1479918960810.png
p1212
aV1479919074797.jpg
p1213
aV1479919307629.jpg
p1214
aV1479919494258.jpg
p1215
aV1479919629480.jpg
p1216
aV1479919913260.jpg
p1217
aV1479919980687.jpg
p1218
aV1479920111501.jpg
p1219
aV1479920383804.jpg
p1220
aV1479921209270.jpg
p1221
aV1479921946966.jpg
p1222
aV1479923789835.jpg
p1223
aV1479923875836.jpg
p1224
aV1479923921979.gif
p1225
aV1479923947052.jpg
p1226
aV1479924019997.jpg
p1227
aV1479924410378.jpg
p1228
aV1479925563573.jpg
p1229
aV1479925637308.jpg
p1230
aV1479925937303.jpg
p1231
aV1479926003371.jpg
p1232
aV1479926066999.jpg
p1233
aV1479926132434.jpg
p1234
aV1479926316164.jpg
p1235
aV1479926390125.jpg
p1236
aV1479926401454.jpg
p1237
aV1479926545097.jpg
p1238
aV1479926645196.jpg
p1239
aV1479926663935.png
p1240
aV1479926853668.jpg
p1241
aV1479927728394.jpg
p1242
aV1479928343679.webm
p1243
aV1479929132375.jpg
p1244
aV1479929371746.webm
p1245
aV1479929470449.webm
p1246
aV1479930538248.jpg
p1247
aV1479930718857.png
p1248
aV1479930817090.png
p1249
aV1479931171186.jpg
p1250
aV1479931573733.jpg
p1251
aV1479931648702.jpg
p1252
aV1479931883817.jpg
p1253
aV1479931912431.webm
p1254
aV1479931950188.jpg
p1255
aV1479932289412.png
p1256
aV1479932372003.jpg
p1257
aV1479933192734.jpg
p1258
aV1479933318099.png
p1259
aV1479934014063.webm
p1260
aV1479934167699.webm
p1261
aV1479935441661.jpg
p1262
aV1479935529781.jpg
p1263
aV1479935691124.jpg
p1264
aV1479936041742.jpg
p1265
aV1479936313213.jpg
p1266
aV1479936620334.gif
p1267
aV1479938017832.jpg
p1268
aV1479938226155.jpg
p1269
aV1479938480062.jpg
p1270
aV1479938824368.jpg
p1271
aV1479939429096.jpg
p1272
aV1479939515207.jpg
p1273
aV1479939814316.jpg
p1274
aV1479939999694.jpg
p1275
aV1479940188977.jpg
p1276
aV1479940340095.png
p1277
aV1479940346245.jpg
p1278
aV1479940568497.gif
p1279
aV1479941648906.jpg
p1280
aV1479941734757.jpg
p1281
aV1479941774933.jpg
p1282
aV1479941889712.gif
p1283
aV1479942253024.gif
p1284
aV1479942564193.jpg
p1285
aV1479943344338.png
p1286
aV1479944003831.jpg
p1287
aV1479944348796.png
p1288
aV1479944789366.jpg
p1289
aV1479944836418.jpg
p1290
aV1479944899247.jpg
p1291
aV1479944962252.jpg
p1292
aV1479945026149.jpg
p1293
aV1479945089334.jpg
p1294
aV1479945152210.jpg
p1295
aV1479945226296.webm
p1296
aV1479945237750.jpg
p1297
aV1479945316698.png
p1298
aV1479945444526.png
p1299
aV1479945566745.jpg
p1300
aV1479945777526.gif
p1301
aV1479945959099.jpg
p1302
aV1479946223637.jpg
p1303
aV1479946256882.jpg
p1304
aV1479946327460.jpg
p1305
aV1479946433013.jpg
p1306
aV1479946660601.gif
p1307
aV1479947068198.png
p1308
aV1479947700738.gif
p1309
aV1479947809537.jpg
p1310
aV1479948063965.jpg
p1311
aV1479949043644.jpg
p1312
aV1479949701461.jpg
p1313
aV1479947818383.jpg
p1314
aV1479947874718.jpg
p1315
a.